target datalayout = "e-m:e-p270:32:32-p271:32:32-p272:64:64-i64:64-i128:128-f80:128-n8:16:32:64-S128"
target triple = "x86_64-pc-linux-gnu"

%"class.llvm::StringRef" = type { ptr, i64 }
%"class.llvm::object::WasmSymbol" = type { %"struct.llvm::wasm::WasmSymbolInfo", ptr, ptr, ptr }
%"struct.llvm::wasm::WasmSymbolInfo" = type { %"class.llvm::StringRef", i8, i32, %"class.std::optional", %"class.std::optional", %"class.std::optional", %union.anon }
%"class.std::optional" = type { %"struct.std::_Optional_base" }
%"struct.std::_Optional_base" = type { %"struct.std::_Optional_payload" }
%"struct.std::_Optional_payload" = type { %"struct.std::_Optional_payload_base.base", [7 x i8] }
%"struct.std::_Optional_payload_base.base" = type <{ %"union.std::_Optional_payload_base<llvm::StringRef>::_Storage", i8 }>
%"union.std::_Optional_payload_base<llvm::StringRef>::_Storage" = type { %"class.llvm::StringRef" }
%union.anon = type { %"struct.llvm::wasm::WasmDataReference" }
%"struct.llvm::wasm::WasmDataReference" = type { i32, i64, i64 }
%"class.llvm::MemoryBufferRef" = type { %"class.llvm::StringRef", %"class.llvm::StringRef" }
%"class.llvm::object::WasmObjectFile" = type <{ %"class.llvm::object::ObjectFile", %"struct.llvm::wasm::WasmObjectHeader", %"class.std::vector", %"struct.llvm::wasm::WasmDylinkInfo", %"struct.llvm::wasm::WasmProducerInfo", %"class.std::vector.24", %"class.std::vector.29", %"class.std::vector.34", %"class.std::vector.39", %"class.std::vector.44", %"class.std::vector.49", %"class.std::vector.54", %"class.std::vector.59", %"class.std::vector.64", %"class.std::vector.69", %"class.std::optional.74", %"class.std::vector.82", %"class.std::vector.87", %"class.std::vector.92", i32, i8, i8, i8, i8, %"struct.llvm::wasm::WasmLinkingData", i32, i32, i32, i32, i32, i32, i32, i32, i32, [4 x i8] }>
%"class.llvm::object::ObjectFile" = type { %"class.llvm::object::SymbolicFile" }
%"class.llvm::object::SymbolicFile" = type { %"class.llvm::object::Binary" }
%"class.llvm::object::Binary" = type { ptr, i32, %"class.llvm::MemoryBufferRef" }
%"struct.llvm::wasm::WasmObjectHeader" = type <{ %"class.llvm::StringRef", i32, [4 x i8] }>
%"class.std::vector" = type { %"struct.std::_Vector_base" }
%"struct.std::_Vector_base" = type { %"struct.std::_Vector_base<llvm::object::WasmSection, std::allocator<llvm::object::WasmSection>>::_Vector_impl" }
%"struct.std::_Vector_base<llvm::object::WasmSection, std::allocator<llvm::object::WasmSection>>::_Vector_impl" = type { %"struct.std::_Vector_base<llvm::object::WasmSection, std::allocator<llvm::object::WasmSection>>::_Vector_impl_data" }
%"struct.std::_Vector_base<llvm::object::WasmSection, std::allocator<llvm::object::WasmSection>>::_Vector_impl_data" = type { ptr, ptr, ptr }
%"struct.llvm::wasm::WasmDylinkInfo" = type { i32, i32, i32, i32, %"class.std::vector.4", %"class.std::vector.9", %"class.std::vector.14" }
%"class.std::vector.4" = type { %"struct.std::_Vector_base.5" }
%"struct.std::_Vector_base.5" = type { %"struct.std::_Vector_base<llvm::StringRef, std::allocator<llvm::StringRef>>::_Vector_impl" }
%"struct.std::_Vector_base<llvm::StringRef, std::allocator<llvm::StringRef>>::_Vector_impl" = type { %"struct.std::_Vector_base<llvm::StringRef, std::allocator<llvm::StringRef>>::_Vector_impl_data" }
%"struct.std::_Vector_base<llvm::StringRef, std::allocator<llvm::StringRef>>::_Vector_impl_data" = type { ptr, ptr, ptr }
%"class.std::vector.9" = type { %"struct.std::_Vector_base.10" }
%"struct.std::_Vector_base.10" = type { %"struct.std::_Vector_base<llvm::wasm::WasmDylinkImportInfo, std::allocator<llvm::wasm::WasmDylinkImportInfo>>::_Vector_impl" }
%"struct.std::_Vector_base<llvm::wasm::WasmDylinkImportInfo, std::allocator<llvm::wasm::WasmDylinkImportInfo>>::_Vector_impl" = type { %"struct.std::_Vector_base<llvm::wasm::WasmDylinkImportInfo, std::allocator<llvm::wasm::WasmDylinkImportInfo>>::_Vector_impl_data" }
%"struct.std::_Vector_base<llvm::wasm::WasmDylinkImportInfo, std::allocator<llvm::wasm::WasmDylinkImportInfo>>::_Vector_impl_data" = type { ptr, ptr, ptr }
%"class.std::vector.14" = type { %"struct.std::_Vector_base.15" }
%"struct.std::_Vector_base.15" = type { %"struct.std::_Vector_base<llvm::wasm::WasmDylinkExportInfo, std::allocator<llvm::wasm::WasmDylinkExportInfo>>::_Vector_impl" }
%"struct.std::_Vector_base<llvm::wasm::WasmDylinkExportInfo, std::allocator<llvm::wasm::WasmDylinkExportInfo>>::_Vector_impl" = type { %"struct.std::_Vector_base<llvm::wasm::WasmDylinkExportInfo, std::allocator<llvm::wasm::WasmDylinkExportInfo>>::_Vector_impl_data" }
%"struct.std::_Vector_base<llvm::wasm::WasmDylinkExportInfo, std::allocator<llvm::wasm::WasmDylinkExportInfo>>::_Vector_impl_data" = type { ptr, ptr, ptr }
%"struct.llvm::wasm::WasmProducerInfo" = type { %"class.std::vector.19", %"class.std::vector.19", %"class.std::vector.19" }
%"class.std::vector.19" = type { %"struct.std::_Vector_base.20" }
%"struct.std::_Vector_base.20" = type { %"struct.std::_Vector_base<std::pair<std::__cxx11::basic_string<char>, std::__cxx11::basic_string<char>>, std::allocator<std::pair<std::__cxx11::basic_string<char>, std::__cxx11::basic_string<char>>>>::_Vector_impl" }
%"struct.std::_Vector_base<std::pair<std::__cxx11::basic_string<char>, std::__cxx11::basic_string<char>>, std::allocator<std::pair<std::__cxx11::basic_string<char>, std::__cxx11::basic_string<char>>>>::_Vector_impl" = type { %"struct.std::_Vector_base<std::pair<std::__cxx11::basic_string<char>, std::__cxx11::basic_string<char>>, std::allocator<std::pair<std::__cxx11::basic_string<char>, std::__cxx11::basic_string<char>>>>::_Vector_impl_data" }
%"struct.std::_Vector_base<std::pair<std::__cxx11::basic_string<char>, std::__cxx11::basic_string<char>>, std::allocator<std::pair<std::__cxx11::basic_string<char>, std::__cxx11::basic_string<char>>>>::_Vector_impl_data" = type { ptr, ptr, ptr }
%"class.std::vector.24" = type { %"struct.std::_Vector_base.25" }
%"struct.std::_Vector_base.25" = type { %"struct.std::_Vector_base<llvm::wasm::WasmFeatureEntry, std::allocator<llvm::wasm::WasmFeatureEntry>>::_Vector_impl" }
%"struct.std::_Vector_base<llvm::wasm::WasmFeatureEntry, std::allocator<llvm::wasm::WasmFeatureEntry>>::_Vector_impl" = type { %"struct.std::_Vector_base<llvm::wasm::WasmFeatureEntry, std::allocator<llvm::wasm::WasmFeatureEntry>>::_Vector_impl_data" }
%"struct.std::_Vector_base<llvm::wasm::WasmFeatureEntry, std::allocator<llvm::wasm::WasmFeatureEntry>>::_Vector_impl_data" = type { ptr, ptr, ptr }
%"class.std::vector.29" = type { %"struct.std::_Vector_base.30" }
%"struct.std::_Vector_base.30" = type { %"struct.std::_Vector_base<llvm::wasm::WasmSignature, std::allocator<llvm::wasm::WasmSignature>>::_Vector_impl" }
%"struct.std::_Vector_base<llvm::wasm::WasmSignature, std::allocator<llvm::wasm::WasmSignature>>::_Vector_impl" = type { %"struct.std::_Vector_base<llvm::wasm::WasmSignature, std::allocator<llvm::wasm::WasmSignature>>::_Vector_impl_data" }
%"struct.std::_Vector_base<llvm::wasm::WasmSignature, std::allocator<llvm::wasm::WasmSignature>>::_Vector_impl_data" = type { ptr, ptr, ptr }
%"class.std::vector.34" = type { %"struct.std::_Vector_base.35" }
%"struct.std::_Vector_base.35" = type { %"struct.std::_Vector_base<llvm::wasm::WasmTable, std::allocator<llvm::wasm::WasmTable>>::_Vector_impl" }
%"struct.std::_Vector_base<llvm::wasm::WasmTable, std::allocator<llvm::wasm::WasmTable>>::_Vector_impl" = type { %"struct.std::_Vector_base<llvm::wasm::WasmTable, std::allocator<llvm::wasm::WasmTable>>::_Vector_impl_data" }
%"struct.std::_Vector_base<llvm::wasm::WasmTable, std::allocator<llvm::wasm::WasmTable>>::_Vector_impl_data" = type { ptr, ptr, ptr }
%"class.std::vector.39" = type { %"struct.std::_Vector_base.40" }
%"struct.std::_Vector_base.40" = type { %"struct.std::_Vector_base<llvm::wasm::WasmLimits, std::allocator<llvm::wasm::WasmLimits>>::_Vector_impl" }
%"struct.std::_Vector_base<llvm::wasm::WasmLimits, std::allocator<llvm::wasm::WasmLimits>>::_Vector_impl" = type { %"struct.std::_Vector_base<llvm::wasm::WasmLimits, std::allocator<llvm::wasm::WasmLimits>>::_Vector_impl_data" }
%"struct.std::_Vector_base<llvm::wasm::WasmLimits, std::allocator<llvm::wasm::WasmLimits>>::_Vector_impl_data" = type { ptr, ptr, ptr }
%"class.std::vector.44" = type { %"struct.std::_Vector_base.45" }
%"struct.std::_Vector_base.45" = type { %"struct.std::_Vector_base<llvm::wasm::WasmGlobal, std::allocator<llvm::wasm::WasmGlobal>>::_Vector_impl" }
%"struct.std::_Vector_base<llvm::wasm::WasmGlobal, std::allocator<llvm::wasm::WasmGlobal>>::_Vector_impl" = type { %"struct.std::_Vector_base<llvm::wasm::WasmGlobal, std::allocator<llvm::wasm::WasmGlobal>>::_Vector_impl_data" }
%"struct.std::_Vector_base<llvm::wasm::WasmGlobal, std::allocator<llvm::wasm::WasmGlobal>>::_Vector_impl_data" = type { ptr, ptr, ptr }
%"class.std::vector.49" = type { %"struct.std::_Vector_base.50" }
%"struct.std::_Vector_base.50" = type { %"struct.std::_Vector_base<llvm::wasm::WasmTag, std::allocator<llvm::wasm::WasmTag>>::_Vector_impl" }
%"struct.std::_Vector_base<llvm::wasm::WasmTag, std::allocator<llvm::wasm::WasmTag>>::_Vector_impl" = type { %"struct.std::_Vector_base<llvm::wasm::WasmTag, std::allocator<llvm::wasm::WasmTag>>::_Vector_impl_data" }
%"struct.std::_Vector_base<llvm::wasm::WasmTag, std::allocator<llvm::wasm::WasmTag>>::_Vector_impl_data" = type { ptr, ptr, ptr }
%"class.std::vector.54" = type { %"struct.std::_Vector_base.55" }
%"struct.std::_Vector_base.55" = type { %"struct.std::_Vector_base<llvm::wasm::WasmImport, std::allocator<llvm::wasm::WasmImport>>::_Vector_impl" }
%"struct.std::_Vector_base<llvm::wasm::WasmImport, std::allocator<llvm::wasm::WasmImport>>::_Vector_impl" = type { %"struct.std::_Vector_base<llvm::wasm::WasmImport, std::allocator<llvm::wasm::WasmImport>>::_Vector_impl_data" }
%"struct.std::_Vector_base<llvm::wasm::WasmImport, std::allocator<llvm::wasm::WasmImport>>::_Vector_impl_data" = type { ptr, ptr, ptr }
%"class.std::vector.59" = type { %"struct.std::_Vector_base.60" }
%"struct.std::_Vector_base.60" = type { %"struct.std::_Vector_base<llvm::wasm::WasmExport, std::allocator<llvm::wasm::WasmExport>>::_Vector_impl" }
%"struct.std::_Vector_base<llvm::wasm::WasmExport, std::allocator<llvm::wasm::WasmExport>>::_Vector_impl" = type { %"struct.std::_Vector_base<llvm::wasm::WasmExport, std::allocator<llvm::wasm::WasmExport>>::_Vector_impl_data" }
%"struct.std::_Vector_base<llvm::wasm::WasmExport, std::allocator<llvm::wasm::WasmExport>>::_Vector_impl_data" = type { ptr, ptr, ptr }
%"class.std::vector.64" = type { %"struct.std::_Vector_base.65" }
%"struct.std::_Vector_base.65" = type { %"struct.std::_Vector_base<llvm::wasm::WasmElemSegment, std::allocator<llvm::wasm::WasmElemSegment>>::_Vector_impl" }
%"struct.std::_Vector_base<llvm::wasm::WasmElemSegment, std::allocator<llvm::wasm::WasmElemSegment>>::_Vector_impl" = type { %"struct.std::_Vector_base<llvm::wasm::WasmElemSegment, std::allocator<llvm::wasm::WasmElemSegment>>::_Vector_impl_data" }
%"struct.std::_Vector_base<llvm::wasm::WasmElemSegment, std::allocator<llvm::wasm::WasmElemSegment>>::_Vector_impl_data" = type { ptr, ptr, ptr }
%"class.std::vector.69" = type { %"struct.std::_Vector_base.70" }
%"struct.std::_Vector_base.70" = type { %"struct.std::_Vector_base<llvm::object::WasmSegment, std::allocator<llvm::object::WasmSegment>>::_Vector_impl" }
%"struct.std::_Vector_base<llvm::object::WasmSegment, std::allocator<llvm::object::WasmSegment>>::_Vector_impl" = type { %"struct.std::_Vector_base<llvm::object::WasmSegment, std::allocator<llvm::object::WasmSegment>>::_Vector_impl_data" }
%"struct.std::_Vector_base<llvm::object::WasmSegment, std::allocator<llvm::object::WasmSegment>>::_Vector_impl_data" = type { ptr, ptr, ptr }
%"class.std::optional.74" = type { %"struct.std::_Optional_base.75" }
%"struct.std::_Optional_base.75" = type { %"struct.std::_Optional_payload.77" }
%"struct.std::_Optional_payload.77" = type { %"struct.std::_Optional_payload_base.base.79", [7 x i8] }
%"struct.std::_Optional_payload_base.base.79" = type <{ %"union.std::_Optional_payload_base<unsigned long>::_Storage", i8 }>
%"union.std::_Optional_payload_base<unsigned long>::_Storage" = type { i64 }
%"class.std::vector.82" = type { %"struct.std::_Vector_base.83" }
%"struct.std::_Vector_base.83" = type { %"struct.std::_Vector_base<llvm::wasm::WasmFunction, std::allocator<llvm::wasm::WasmFunction>>::_Vector_impl" }
%"struct.std::_Vector_base<llvm::wasm::WasmFunction, std::allocator<llvm::wasm::WasmFunction>>::_Vector_impl" = type { %"struct.std::_Vector_base<llvm::wasm::WasmFunction, std::allocator<llvm::wasm::WasmFunction>>::_Vector_impl_data" }
%"struct.std::_Vector_base<llvm::wasm::WasmFunction, std::allocator<llvm::wasm::WasmFunction>>::_Vector_impl_data" = type { ptr, ptr, ptr }
%"class.std::vector.87" = type { %"struct.std::_Vector_base.88" }
%"struct.std::_Vector_base.88" = type { %"struct.std::_Vector_base<llvm::object::WasmSymbol, std::allocator<llvm::object::WasmSymbol>>::_Vector_impl" }
%"struct.std::_Vector_base<llvm::object::WasmSymbol, std::allocator<llvm::object::WasmSymbol>>::_Vector_impl" = type { %"struct.std::_Vector_base<llvm::object::WasmSymbol, std::allocator<llvm::object::WasmSymbol>>::_Vector_impl_data" }
%"struct.std::_Vector_base<llvm::object::WasmSymbol, std::allocator<llvm::object::WasmSymbol>>::_Vector_impl_data" = type { ptr, ptr, ptr }
%"class.std::vector.92" = type { %"struct.std::_Vector_base.93" }
%"struct.std::_Vector_base.93" = type { %"struct.std::_Vector_base<llvm::wasm::WasmDebugName, std::allocator<llvm::wasm::WasmDebugName>>::_Vector_impl" }
%"struct.std::_Vector_base<llvm::wasm::WasmDebugName, std::allocator<llvm::wasm::WasmDebugName>>::_Vector_impl" = type { %"struct.std::_Vector_base<llvm::wasm::WasmDebugName, std::allocator<llvm::wasm::WasmDebugName>>::_Vector_impl_data" }
%"struct.std::_Vector_base<llvm::wasm::WasmDebugName, std::allocator<llvm::wasm::WasmDebugName>>::_Vector_impl_data" = type { ptr, ptr, ptr }
%"struct.llvm::wasm::WasmLinkingData" = type { i32, %"class.std::vector.97", %"class.std::vector.4" }
%"class.std::vector.97" = type { %"struct.std::_Vector_base.98" }
%"struct.std::_Vector_base.98" = type { %"struct.std::_Vector_base<llvm::wasm::WasmInitFunc, std::allocator<llvm::wasm::WasmInitFunc>>::_Vector_impl" }
%"struct.std::_Vector_base<llvm::wasm::WasmInitFunc, std::allocator<llvm::wasm::WasmInitFunc>>::_Vector_impl" = type { %"struct.std::_Vector_base<llvm::wasm::WasmInitFunc, std::allocator<llvm::wasm::WasmInitFunc>>::_Vector_impl_data" }
%"struct.std::_Vector_base<llvm::wasm::WasmInitFunc, std::allocator<llvm::wasm::WasmInitFunc>>::_Vector_impl_data" = type { ptr, ptr, ptr }
%struct.anon.185 = type { i32, i32 }

; Function Attrs: mustprogress nounwind uwtable
define linkonce_odr hidden noundef nonnull align 8 dereferenceable(144) ptr @_ZNKSt6vectorIN4llvm6object10WasmSymbolESaIS2_EEixEm(ptr noundef nonnull align 8 dereferenceable(24) %0, i64 noundef %1) #0 comdat align 2 {
  %3 = alloca ptr, align 8
  %4 = alloca i64, align 8
  store ptr %0, ptr %3, align 8
  store i64 %1, ptr %4, align 8
  %5 = load ptr, ptr %3, align 8
  %6 = getelementptr inbounds nuw %"struct.std::_Vector_base.88", ptr %5, i32 0, i32 0
  %7 = getelementptr inbounds nuw %"struct.std::_Vector_base<llvm::object::WasmSymbol, std::allocator<llvm::object::WasmSymbol>>::_Vector_impl_data", ptr %6, i32 0, i32 0
  %8 = load ptr, ptr %7, align 8
  %9 = load i64, ptr %4, align 8
  %10 = getelementptr inbounds %"class.llvm::object::WasmSymbol", ptr %8, i64 %9
  ret ptr %10
}

; Function Attrs: mustprogress nounwind uwtable
define dso_local noundef nonnull align 8 dereferenceable(144) ptr @_ZNK4llvm6object14WasmObjectFile13getWasmSymbolERKNS0_11DataRefImplE(ptr noundef nonnull align 8 dereferenceable(684) %0, ptr noundef nonnull align 8 dereferenceable(8) %1) #0 align 2 {
  %3 = alloca ptr, align 8
  %4 = alloca ptr, align 8
  store ptr %0, ptr %3, align 8
  store ptr %1, ptr %4, align 8
  %5 = load ptr, ptr %3, align 8
  %6 = getelementptr inbounds nuw %"class.llvm::object::WasmObjectFile", ptr %5, i32 0, i32 17
  %7 = load ptr, ptr %4, align 8
  %8 = getelementptr inbounds nuw %struct.anon.185, ptr %7, i32 0, i32 1
  %9 = load i32, ptr %8, align 4
  %10 = zext i32 %9 to i64
  %11 = call noundef nonnull align 8 dereferenceable(144) ptr @_ZNKSt6vectorIN4llvm6object10WasmSymbolESaIS2_EEixEm(ptr noundef nonnull align 8 dereferenceable(24) %6, i64 noundef %10) #12
  ret ptr %11
}