; Function Attrs: mustprogress nofree norecurse nosync nounwind willreturn memory(argmem: read) uwtable
define dso_local noundef nonnull align 8 dereferenceable(144) ptr @_ZNK4llvm6object14WasmObjectFile13getWasmSymbolERKNS0_11DataRefImplE(ptr nocapture noundef nonnull readonly align 8 dereferenceable(684) %0, ptr nocapture noundef nonnull readonly align 8 dereferenceable(8) %1) local_unnamed_addr #4 align 2 {
  %3 = getelementptr inbounds nuw i8, ptr %0, i64 536
  %4 = getelementptr inbounds nuw i8, ptr %1, i64 4
  %5 = load i32, ptr %4, align 4
  %6 = zext i32 %5 to i64
  %7 = load ptr, ptr %3, align 8
  %8 = getelementptr inbounds %"class.llvm::object::WasmSymbol", ptr %7, i64 %6
  ret ptr %8
}